GAS LISTING C:\Users\Lenovo\AppData\Local\Temp/ccNZv4CU.s 			page 1


   1               		.file	"uas1.c"
   2               	__SREG__ = 0x3f
   3               	__SP_H__ = 0x3e
   4               	__SP_L__ = 0x3d
   5               	__CCP__  = 0x34
   6               	__tmp_reg__ = 0
   7               	__zero_reg__ = 1
   8               		.section	.text.calc_sth11,"ax",@progbits
   9               	.global	calc_sth11
  10               		.type	calc_sth11, @function
  11               	calc_sth11:
  12 0000 2F92      		push r2
  13 0002 3F92      		push r3
  14 0004 4F92      		push r4
  15 0006 5F92      		push r5
  16 0008 6F92      		push r6
  17 000a 7F92      		push r7
  18 000c 8F92      		push r8
  19 000e 9F92      		push r9
  20 0010 AF92      		push r10
  21 0012 BF92      		push r11
  22 0014 CF92      		push r12
  23 0016 DF92      		push r13
  24 0018 EF92      		push r14
  25 001a FF92      		push r15
  26 001c 0F93      		push r16
  27 001e 1F93      		push r17
  28               	/* prologue: function */
  29               	/* frame size = 0 */
  30 0020 6091 0000 		lds r22,HUMI_val
  31 0024 7091 0000 		lds r23,(HUMI_val)+1
  32 0028 80E0      		ldi r24,lo8(0)
  33 002a 90E0      		ldi r25,hi8(0)
  34 002c 0E94 0000 		call __floatunsisf
  35 0030 5B01      		movw r10,r22
  36 0032 6C01      		movw r12,r24
  37 0034 6091 0000 		lds r22,TEMP_val
  38 0038 7091 0000 		lds r23,(TEMP_val)+1
  39 003c 80E0      		ldi r24,lo8(0)
  40 003e 90E0      		ldi r25,hi8(0)
  41 0040 0E94 0000 		call __floatunsisf
  42 0044 2AE0      		ldi r18,lo8(0x3c23d70a)
  43 0046 37ED      		ldi r19,hi8(0x3c23d70a)
  44 0048 43E2      		ldi r20,hlo8(0x3c23d70a)
  45 004a 5CE3      		ldi r21,hhi8(0x3c23d70a)
  46 004c 0E94 0000 		call __mulsf3
  47 0050 20E0      		ldi r18,lo8(0x42200000)
  48 0052 30E0      		ldi r19,hi8(0x42200000)
  49 0054 40E2      		ldi r20,hlo8(0x42200000)
  50 0056 52E4      		ldi r21,hhi8(0x42200000)
  51 0058 0E94 0000 		call __subsf3
  52 005c 1B01      		movw r2,r22
  53 005e 2C01      		movw r4,r24
  54 0060 20E0      		ldi r18,lo8(0x41c80000)
  55 0062 30E0      		ldi r19,hi8(0x41c80000)
  56 0064 48EC      		ldi r20,hlo8(0x41c80000)
  57 0066 51E4      		ldi r21,hhi8(0x41c80000)
GAS LISTING C:\Users\Lenovo\AppData\Local\Temp/ccNZv4CU.s 			page 2


  58 0068 0E94 0000 		call __subsf3
  59 006c 7B01      		movw r14,r22
  60 006e 8C01      		movw r16,r24
  61 0070 C601      		movw r24,r12
  62 0072 B501      		movw r22,r10
  63 0074 2CEA      		ldi r18,lo8(0x38a7c5ac)
  64 0076 35EC      		ldi r19,hi8(0x38a7c5ac)
  65 0078 47EA      		ldi r20,hlo8(0x38a7c5ac)
  66 007a 58E3      		ldi r21,hhi8(0x38a7c5ac)
  67 007c 0E94 0000 		call __mulsf3
  68 0080 2AE0      		ldi r18,lo8(0x3c23d70a)
  69 0082 37ED      		ldi r19,hi8(0x3c23d70a)
  70 0084 43E2      		ldi r20,hlo8(0x3c23d70a)
  71 0086 5CE3      		ldi r21,hhi8(0x3c23d70a)
  72 0088 0E94 0000 		call __addsf3
  73 008c 9B01      		movw r18,r22
  74 008e AC01      		movw r20,r24
  75 0090 C801      		movw r24,r16
  76 0092 B701      		movw r22,r14
  77 0094 0E94 0000 		call __mulsf3
  78 0098 3B01      		movw r6,r22
  79 009a 4C01      		movw r8,r24
  80 009c C601      		movw r24,r12
  81 009e B501      		movw r22,r10
  82 00a0 22EA      		ldi r18,lo8(0xb63be7a2)
  83 00a2 37EE      		ldi r19,hi8(0xb63be7a2)
  84 00a4 4BE3      		ldi r20,hlo8(0xb63be7a2)
  85 00a6 56EB      		ldi r21,hhi8(0xb63be7a2)
  86 00a8 0E94 0000 		call __mulsf3
  87 00ac A601      		movw r20,r12
  88 00ae 9501      		movw r18,r10
  89 00b0 0E94 0000 		call __mulsf3
  90 00b4 7B01      		movw r14,r22
  91 00b6 8C01      		movw r16,r24
  92 00b8 C601      		movw r24,r12
  93 00ba B501      		movw r22,r10
  94 00bc 24E5      		ldi r18,lo8(0x3d25e354)
  95 00be 33EE      		ldi r19,hi8(0x3d25e354)
  96 00c0 45E2      		ldi r20,hlo8(0x3d25e354)
  97 00c2 5DE3      		ldi r21,hhi8(0x3d25e354)
  98 00c4 0E94 0000 		call __mulsf3
  99 00c8 9B01      		movw r18,r22
 100 00ca AC01      		movw r20,r24
 101 00cc C801      		movw r24,r16
 102 00ce B701      		movw r22,r14
 103 00d0 0E94 0000 		call __addsf3
 104 00d4 20E0      		ldi r18,lo8(0x40800000)
 105 00d6 30E0      		ldi r19,hi8(0x40800000)
 106 00d8 40E8      		ldi r20,hlo8(0x40800000)
 107 00da 50E4      		ldi r21,hhi8(0x40800000)
 108 00dc 0E94 0000 		call __subsf3
 109 00e0 9B01      		movw r18,r22
 110 00e2 AC01      		movw r20,r24
 111 00e4 C401      		movw r24,r8
 112 00e6 B301      		movw r22,r6
 113 00e8 0E94 0000 		call __addsf3
 114 00ec 7B01      		movw r14,r22
GAS LISTING C:\Users\Lenovo\AppData\Local\Temp/ccNZv4CU.s 			page 3


 115 00ee 8C01      		movw r16,r24
 116 00f0 20E0      		ldi r18,lo8(0x42c80000)
 117 00f2 30E0      		ldi r19,hi8(0x42c80000)
 118 00f4 48EC      		ldi r20,hlo8(0x42c80000)
 119 00f6 52E4      		ldi r21,hhi8(0x42c80000)
 120 00f8 0E94 0000 		call __gtsf2
 121 00fc 1816      		cp __zero_reg__,r24
 122 00fe 04F4      		brge .L9
 123 0100 0F2E      		mov __tmp_reg__,r31
 124 0102 F0E0      		ldi r31,lo8(0x42c80000)
 125 0104 EF2E      		mov r14,r31
 126 0106 F0E0      		ldi r31,hi8(0x42c80000)
 127 0108 FF2E      		mov r15,r31
 128 010a F8EC      		ldi r31,hlo8(0x42c80000)
 129 010c 0F2F      		mov r16,r31
 130 010e F2E4      		ldi r31,hhi8(0x42c80000)
 131 0110 1F2F      		mov r17,r31
 132 0112 F02D      		mov r31,__tmp_reg__
 133 0114 00C0      		rjmp .L4
 134               	.L9:
 135 0116 C801      		movw r24,r16
 136 0118 B701      		movw r22,r14
 137 011a 2DEC      		ldi r18,lo8(0x3dcccccd)
 138 011c 3CEC      		ldi r19,hi8(0x3dcccccd)
 139 011e 4CEC      		ldi r20,hlo8(0x3dcccccd)
 140 0120 5DE3      		ldi r21,hhi8(0x3dcccccd)
 141 0122 0E94 0000 		call __ltsf2
 142 0126 8823      		tst r24
 143 0128 04F4      		brge .L4
 144 012a 0F2E      		mov __tmp_reg__,r31
 145 012c FDEC      		ldi r31,lo8(0x3dcccccd)
 146 012e EF2E      		mov r14,r31
 147 0130 FCEC      		ldi r31,hi8(0x3dcccccd)
 148 0132 FF2E      		mov r15,r31
 149 0134 FCEC      		ldi r31,hlo8(0x3dcccccd)
 150 0136 0F2F      		mov r16,r31
 151 0138 FDE3      		ldi r31,hhi8(0x3dcccccd)
 152 013a 1F2F      		mov r17,r31
 153 013c F02D      		mov r31,__tmp_reg__
 154               	.L4:
 155 013e C201      		movw r24,r4
 156 0140 B101      		movw r22,r2
 157 0142 0E94 0000 		call __fixunssfsi
 158 0146 7093 0000 		sts (TEMP_val)+1,r23
 159 014a 6093 0000 		sts TEMP_val,r22
 160 014e C801      		movw r24,r16
 161 0150 B701      		movw r22,r14
 162 0152 0E94 0000 		call __fixunssfsi
 163 0156 7093 0000 		sts (HUMI_val)+1,r23
 164 015a 6093 0000 		sts HUMI_val,r22
 165               	/* epilogue start */
 166 015e 1F91      		pop r17
 167 0160 0F91      		pop r16
 168 0162 FF90      		pop r15
 169 0164 EF90      		pop r14
 170 0166 DF90      		pop r13
 171 0168 CF90      		pop r12
GAS LISTING C:\Users\Lenovo\AppData\Local\Temp/ccNZv4CU.s 			page 4


 172 016a BF90      		pop r11
 173 016c AF90      		pop r10
 174 016e 9F90      		pop r9
 175 0170 8F90      		pop r8
 176 0172 7F90      		pop r7
 177 0174 6F90      		pop r6
 178 0176 5F90      		pop r5
 179 0178 4F90      		pop r4
 180 017a 3F90      		pop r3
 181 017c 2F90      		pop r2
 182 017e 0895      		ret
 183               		.size	calc_sth11, .-calc_sth11
 184               		.data
 185               	.LC0:
 186 0000 7431 00   		.string	"t1"
 187               	.LC1:
 188 0003 7432 00   		.string	"t2"
 189               	.LC2:
 190 0006 7433 00   		.string	"t3"
 191               	.LC3:
 192 0009 7434 00   		.string	"t4"
 193               		.section	.text.NutAppMain,"ax",@progbits
 194               	.global	NutAppMain
 195               		.type	NutAppMain, @function
 196               	NutAppMain:
 197               	/* prologue: function */
 198               	/* frame size = 0 */
 199 0000 139A      		sbi 34-32,3
 200 0002 87B3      		in r24,55-32
 201 0004 806F      		ori r24,lo8(-16)
 202 0006 87BB      		out 55-32,r24
 203 0008 81B3      		in r24,49-32
 204 000a 8F60      		ori r24,lo8(15)
 205 000c 81BB      		out 49-32,r24
 206 000e 18BA      		out 56-32,__zero_reg__
 207 0010 80E0      		ldi r24,lo8(.LC0)
 208 0012 90E0      		ldi r25,hi8(.LC0)
 209 0014 60E0      		ldi r22,lo8(gs(Thread1))
 210 0016 70E0      		ldi r23,hi8(gs(Thread1))
 211 0018 40E0      		ldi r20,lo8(0)
 212 001a 50E0      		ldi r21,hi8(0)
 213 001c 20E0      		ldi r18,lo8(512)
 214 001e 32E0      		ldi r19,hi8(512)
 215 0020 0E94 0000 		call NutThreadCreate
 216 0024 80E0      		ldi r24,lo8(.LC1)
 217 0026 90E0      		ldi r25,hi8(.LC1)
 218 0028 60E0      		ldi r22,lo8(gs(Thread2))
 219 002a 70E0      		ldi r23,hi8(gs(Thread2))
 220 002c 40E0      		ldi r20,lo8(0)
 221 002e 50E0      		ldi r21,hi8(0)
 222 0030 20E0      		ldi r18,lo8(512)
 223 0032 32E0      		ldi r19,hi8(512)
 224 0034 0E94 0000 		call NutThreadCreate
 225 0038 80E0      		ldi r24,lo8(.LC2)
 226 003a 90E0      		ldi r25,hi8(.LC2)
 227 003c 60E0      		ldi r22,lo8(gs(Thread3))
 228 003e 70E0      		ldi r23,hi8(gs(Thread3))
GAS LISTING C:\Users\Lenovo\AppData\Local\Temp/ccNZv4CU.s 			page 5


 229 0040 40E0      		ldi r20,lo8(0)
 230 0042 50E0      		ldi r21,hi8(0)
 231 0044 20E0      		ldi r18,lo8(512)
 232 0046 32E0      		ldi r19,hi8(512)
 233 0048 0E94 0000 		call NutThreadCreate
 234 004c 80E0      		ldi r24,lo8(.LC3)
 235 004e 90E0      		ldi r25,hi8(.LC3)
 236 0050 60E0      		ldi r22,lo8(gs(Thread4))
 237 0052 70E0      		ldi r23,hi8(gs(Thread4))
 238 0054 40E0      		ldi r20,lo8(0)
 239 0056 50E0      		ldi r21,hi8(0)
 240 0058 20E0      		ldi r18,lo8(512)
 241 005a 32E0      		ldi r19,hi8(512)
 242 005c 0E94 0000 		call NutThreadCreate
 243               	.L11:
 244 0060 C09A      		sbi 56-32,0
 245 0062 64EF      		ldi r22,lo8(500)
 246 0064 71E0      		ldi r23,hi8(500)
 247 0066 80E0      		ldi r24,hlo8(500)
 248 0068 90E0      		ldi r25,hhi8(500)
 249 006a 0E94 0000 		call NutSleep
 250 006e C098      		cbi 56-32,0
 251 0070 64EF      		ldi r22,lo8(500)
 252 0072 71E0      		ldi r23,hi8(500)
 253 0074 80E0      		ldi r24,hlo8(500)
 254 0076 90E0      		ldi r25,hhi8(500)
 255 0078 0E94 0000 		call NutSleep
 256 007c 00C0      		rjmp .L11
 257               		.size	NutAppMain, .-NutAppMain
 258               		.section	.text.Thread3,"ax",@progbits
 259               	.global	Thread3
 260               		.type	Thread3, @function
 261               	Thread3:
 262               	/* prologue: function */
 263               	/* frame size = 0 */
 264               	.L14:
 265 0000 C69A      		sbi 56-32,6
 266 0002 60ED      		ldi r22,lo8(2000)
 267 0004 77E0      		ldi r23,hi8(2000)
 268 0006 80E0      		ldi r24,hlo8(2000)
 269 0008 90E0      		ldi r25,hhi8(2000)
 270 000a 0E94 0000 		call NutSleep
 271 000e C698      		cbi 56-32,6
 272 0010 C79A      		sbi 56-32,7
 273 0012 60ED      		ldi r22,lo8(2000)
 274 0014 77E0      		ldi r23,hi8(2000)
 275 0016 80E0      		ldi r24,hlo8(2000)
 276 0018 90E0      		ldi r25,hhi8(2000)
 277 001a 0E94 0000 		call NutSleep
 278 001e C798      		cbi 56-32,7
 279 0020 00C0      		rjmp .L14
 280               		.size	Thread3, .-Thread3
 281               		.section	.text.Thread2,"ax",@progbits
 282               	.global	Thread2
 283               		.type	Thread2, @function
 284               	Thread2:
 285               	/* prologue: function */
GAS LISTING C:\Users\Lenovo\AppData\Local\Temp/ccNZv4CU.s 			page 6


 286               	/* frame size = 0 */
 287               	.L17:
 288 0000 C59A      		sbi 56-32,5
 289 0002 68EE      		ldi r22,lo8(1000)
 290 0004 73E0      		ldi r23,hi8(1000)
 291 0006 80E0      		ldi r24,hlo8(1000)
 292 0008 90E0      		ldi r25,hhi8(1000)
 293 000a 0E94 0000 		call NutSleep
 294 000e C598      		cbi 56-32,5
 295 0010 68EE      		ldi r22,lo8(1000)
 296 0012 73E0      		ldi r23,hi8(1000)
 297 0014 80E0      		ldi r24,hlo8(1000)
 298 0016 90E0      		ldi r25,hhi8(1000)
 299 0018 0E94 0000 		call NutSleep
 300 001c 00C0      		rjmp .L17
 301               		.size	Thread2, .-Thread2
 302               		.section	.text.Thread1,"ax",@progbits
 303               	.global	Thread1
 304               		.type	Thread1, @function
 305               	Thread1:
 306               	/* prologue: function */
 307               	/* frame size = 0 */
 308               	.L20:
 309 0000 C49A      		sbi 56-32,4
 310 0002 64EF      		ldi r22,lo8(500)
 311 0004 71E0      		ldi r23,hi8(500)
 312 0006 80E0      		ldi r24,hlo8(500)
 313 0008 90E0      		ldi r25,hhi8(500)
 314 000a 0E94 0000 		call NutSleep
 315 000e C498      		cbi 56-32,4
 316 0010 64EF      		ldi r22,lo8(500)
 317 0012 71E0      		ldi r23,hi8(500)
 318 0014 80E0      		ldi r24,hlo8(500)
 319 0016 90E0      		ldi r25,hhi8(500)
 320 0018 0E94 0000 		call NutSleep
 321 001c 00C0      		rjmp .L20
 322               		.size	Thread1, .-Thread1
 323               		.section	.text.rotate_Left,"ax",@progbits
 324               	.global	rotate_Left
 325               		.type	rotate_Left, @function
 326               	rotate_Left:
 327 0000 CF92      		push r12
 328 0002 DF92      		push r13
 329 0004 EF92      		push r14
 330 0006 FF92      		push r15
 331 0008 0F93      		push r16
 332 000a 1F93      		push r17
 333 000c CF93      		push r28
 334 000e DF93      		push r29
 335               	/* prologue: function */
 336               	/* frame size = 0 */
 337 0010 C0E0      		ldi r28,lo8(0)
 338 0012 D0E0      		ldi r29,hi8(0)
 339 0014 28E0      		ldi r18,lo8(8)
 340 0016 C22E      		mov r12,r18
 341 0018 D12C      		mov r13,__zero_reg__
 342 001a 7C01      		movw r14,r24
GAS LISTING C:\Users\Lenovo\AppData\Local\Temp/ccNZv4CU.s 			page 7


 343 001c 0027      		clr r16
 344 001e F7FC      		sbrc r15,7
 345 0020 0095      		com r16
 346 0022 102F      		mov r17,r16
 347               	.L23:
 348 0024 82B3      		in r24,50-32
 349 0026 807F      		andi r24,lo8(-16)
 350 0028 82BB      		out 50-32,r24
 351 002a 22B3      		in r18,50-32
 352 002c C601      		movw r24,r12
 353 002e 0C2E      		mov r0,r28
 354 0030 00C0      		rjmp 2f
 355 0032 9595      	1:	asr r25
 356 0034 8795      		ror r24
 357 0036 0A94      	2:	dec r0
 358 0038 02F4      		brpl 1b
 359 003a 282B      		or r18,r24
 360 003c 22BB      		out 50-32,r18
 361 003e C801      		movw r24,r16
 362 0040 B701      		movw r22,r14
 363 0042 0E94 0000 		call NutSleep
 364 0046 2196      		adiw r28,1
 365 0048 C430      		cpi r28,4
 366 004a D105      		cpc r29,__zero_reg__
 367 004c 01F4      		brne .L23
 368               	/* epilogue start */
 369 004e DF91      		pop r29
 370 0050 CF91      		pop r28
 371 0052 1F91      		pop r17
 372 0054 0F91      		pop r16
 373 0056 FF90      		pop r15
 374 0058 EF90      		pop r14
 375 005a DF90      		pop r13
 376 005c CF90      		pop r12
 377 005e 0895      		ret
 378               		.size	rotate_Left, .-rotate_Left
 379               		.section	.text.rotate_Right,"ax",@progbits
 380               	.global	rotate_Right
 381               		.type	rotate_Right, @function
 382               	rotate_Right:
 383 0000 CF92      		push r12
 384 0002 DF92      		push r13
 385 0004 EF92      		push r14
 386 0006 FF92      		push r15
 387 0008 0F93      		push r16
 388 000a 1F93      		push r17
 389 000c CF93      		push r28
 390 000e DF93      		push r29
 391               	/* prologue: function */
 392               	/* frame size = 0 */
 393 0010 C0E0      		ldi r28,lo8(0)
 394 0012 D0E0      		ldi r29,hi8(0)
 395 0014 31E0      		ldi r19,lo8(1)
 396 0016 C32E      		mov r12,r19
 397 0018 D12C      		mov r13,__zero_reg__
 398 001a 7C01      		movw r14,r24
 399 001c 0027      		clr r16
GAS LISTING C:\Users\Lenovo\AppData\Local\Temp/ccNZv4CU.s 			page 8


 400 001e F7FC      		sbrc r15,7
 401 0020 0095      		com r16
 402 0022 102F      		mov r17,r16
 403               	.L27:
 404 0024 82B3      		in r24,50-32
 405 0026 807F      		andi r24,lo8(-16)
 406 0028 82BB      		out 50-32,r24
 407 002a 22B3      		in r18,50-32
 408 002c C601      		movw r24,r12
 409 002e 0C2E      		mov r0,r28
 410 0030 00C0      		rjmp 2f
 411 0032 880F      	1:	lsl r24
 412 0034 991F      		rol r25
 413 0036 0A94      	2:	dec r0
 414 0038 02F4      		brpl 1b
 415 003a 282B      		or r18,r24
 416 003c 22BB      		out 50-32,r18
 417 003e C801      		movw r24,r16
 418 0040 B701      		movw r22,r14
 419 0042 0E94 0000 		call NutSleep
 420 0046 2196      		adiw r28,1
 421 0048 C430      		cpi r28,4
 422 004a D105      		cpc r29,__zero_reg__
 423 004c 01F4      		brne .L27
 424               	/* epilogue start */
 425 004e DF91      		pop r29
 426 0050 CF91      		pop r28
 427 0052 1F91      		pop r17
 428 0054 0F91      		pop r16
 429 0056 FF90      		pop r15
 430 0058 EF90      		pop r14
 431 005a DF90      		pop r13
 432 005c CF90      		pop r12
 433 005e 0895      		ret
 434               		.size	rotate_Right, .-rotate_Right
 435               		.section	.text.led_on,"ax",@progbits
 436               	.global	led_on
 437               		.type	led_on, @function
 438               	led_on:
 439 0000 EF92      		push r14
 440 0002 FF92      		push r15
 441 0004 0F93      		push r16
 442 0006 1F93      		push r17
 443 0008 CF93      		push r28
 444 000a DF93      		push r29
 445               	/* prologue: function */
 446               	/* frame size = 0 */
 447 000c 7B01      		movw r14,r22
 448 000e C8E0      		ldi r28,lo8(8)
 449 0010 D0E0      		ldi r29,hi8(8)
 450 0012 00C0      		rjmp 2f
 451 0014 CC0F      	1:	lsl r28
 452 0016 DD1F      		rol r29
 453 0018 8A95      	2:	dec r24
 454 001a 02F4      		brpl 1b
 455 001c C8BB      		out 56-32,r28
 456 001e 0027      		clr r16
GAS LISTING C:\Users\Lenovo\AppData\Local\Temp/ccNZv4CU.s 			page 9


 457 0020 F7FC      		sbrc r15,7
 458 0022 0095      		com r16
 459 0024 102F      		mov r17,r16
 460 0026 C801      		movw r24,r16
 461 0028 B701      		movw r22,r14
 462 002a 0E94 0000 		call NutSleep
 463 002e 88B3      		in r24,56-32
 464 0030 9E01      		movw r18,r28
 465 0032 2095      		com r18
 466 0034 922F      		mov r25,r18
 467 0036 9823      		and r25,r24
 468 0038 98BB      		out 56-32,r25
 469 003a C801      		movw r24,r16
 470 003c B701      		movw r22,r14
 471 003e 0E94 0000 		call NutSleep
 472               	/* epilogue start */
 473 0042 DF91      		pop r29
 474 0044 CF91      		pop r28
 475 0046 1F91      		pop r17
 476 0048 0F91      		pop r16
 477 004a FF90      		pop r15
 478 004c EF90      		pop r14
 479 004e 0895      		ret
 480               		.size	led_on, .-led_on
 481               		.data
 482               	.LC4:
 483 000c 7561 7274 		.string	"uart0"
 483      3000 
 484               	.LC5:
 485 0012 722B 00   		.string	"r+"
 486               		.section	.text.InitUART0,"ax",@progbits
 487               	.global	InitUART0
 488               		.type	InitUART0, @function
 489               	InitUART0:
 490               	/* prologue: function */
 491               	/* frame size = 0 */
 492 0000 80E0      		ldi r24,lo8(devUsartAvr0)
 493 0002 90E0      		ldi r25,hi8(devUsartAvr0)
 494 0004 60E0      		ldi r22,lo8(0)
 495 0006 70E0      		ldi r23,hi8(0)
 496 0008 40E0      		ldi r20,lo8(0)
 497 000a 0E94 0000 		call NutRegisterDevice
 498 000e 80E0      		ldi r24,lo8(.LC4)
 499 0010 90E0      		ldi r25,hi8(.LC4)
 500 0012 60E0      		ldi r22,lo8(.LC5)
 501 0014 70E0      		ldi r23,hi8(.LC5)
 502 0016 0E94 0000 		call fopen
 503 001a 9093 0000 		sts (uart)+1,r25
 504 001e 8093 0000 		sts uart,r24
 505 0022 0E94 0000 		call _fileno
 506 0026 61E0      		ldi r22,lo8(257)
 507 0028 71E0      		ldi r23,hi8(257)
 508 002a 40E0      		ldi r20,lo8(baud)
 509 002c 50E0      		ldi r21,hi8(baud)
 510 002e 0E94 0000 		call _ioctl
 511               	/* epilogue start */
 512 0032 0895      		ret
GAS LISTING C:\Users\Lenovo\AppData\Local\Temp/ccNZv4CU.s 			page 10


 513               		.size	InitUART0, .-InitUART0
 514               		.section	.text.SHT11_Start,"ax",@progbits
 515               	.global	SHT11_Start
 516               		.type	SHT11_Start, @function
 517               	SHT11_Start:
 518               	/* prologue: function */
 519               	/* frame size = 0 */
 520 0000 1298      		cbi 34-32,2
 521 0002 1B98      		cbi 35-32,3
 522 0004 63E0      		ldi r22,lo8(3)
 523 0006 70E0      		ldi r23,hi8(3)
 524 0008 80E0      		ldi r24,hlo8(3)
 525 000a 90E0      		ldi r25,hhi8(3)
 526 000c 0E94 0000 		call NutMicroDelay
 527 0010 1B9A      		sbi 35-32,3
 528 0012 63E0      		ldi r22,lo8(3)
 529 0014 70E0      		ldi r23,hi8(3)
 530 0016 80E0      		ldi r24,hlo8(3)
 531 0018 90E0      		ldi r25,hhi8(3)
 532 001a 0E94 0000 		call NutMicroDelay
 533 001e 129A      		sbi 34-32,2
 534 0020 63E0      		ldi r22,lo8(3)
 535 0022 70E0      		ldi r23,hi8(3)
 536 0024 80E0      		ldi r24,hlo8(3)
 537 0026 90E0      		ldi r25,hhi8(3)
 538 0028 0E94 0000 		call NutMicroDelay
 539 002c 1B98      		cbi 35-32,3
 540 002e 66E0      		ldi r22,lo8(6)
 541 0030 70E0      		ldi r23,hi8(6)
 542 0032 80E0      		ldi r24,hlo8(6)
 543 0034 90E0      		ldi r25,hhi8(6)
 544 0036 0E94 0000 		call NutMicroDelay
 545 003a 1B9A      		sbi 35-32,3
 546 003c 63E0      		ldi r22,lo8(3)
 547 003e 70E0      		ldi r23,hi8(3)
 548 0040 80E0      		ldi r24,hlo8(3)
 549 0042 90E0      		ldi r25,hhi8(3)
 550 0044 0E94 0000 		call NutMicroDelay
 551 0048 1298      		cbi 34-32,2
 552 004a 63E0      		ldi r22,lo8(3)
 553 004c 70E0      		ldi r23,hi8(3)
 554 004e 80E0      		ldi r24,hlo8(3)
 555 0050 90E0      		ldi r25,hhi8(3)
 556 0052 0E94 0000 		call NutMicroDelay
 557 0056 1B98      		cbi 35-32,3
 558               	/* epilogue start */
 559 0058 0895      		ret
 560               		.size	SHT11_Start, .-SHT11_Start
 561               		.section	.text.SHT11_Reset,"ax",@progbits
 562               	.global	SHT11_Reset
 563               		.type	SHT11_Reset, @function
 564               	SHT11_Reset:
 565 0000 1F93      		push r17
 566               	/* prologue: function */
 567               	/* frame size = 0 */
 568 0002 1298      		cbi 34-32,2
 569 0004 1B98      		cbi 35-32,3
GAS LISTING C:\Users\Lenovo\AppData\Local\Temp/ccNZv4CU.s 			page 11


 570 0006 63E0      		ldi r22,lo8(3)
 571 0008 70E0      		ldi r23,hi8(3)
 572 000a 80E0      		ldi r24,hlo8(3)
 573 000c 90E0      		ldi r25,hhi8(3)
 574 000e 0E94 0000 		call NutMicroDelay
 575 0012 10E0      		ldi r17,lo8(0)
 576               	.L37:
 577 0014 1B9A      		sbi 35-32,3
 578 0016 63E0      		ldi r22,lo8(3)
 579 0018 70E0      		ldi r23,hi8(3)
 580 001a 80E0      		ldi r24,hlo8(3)
 581 001c 90E0      		ldi r25,hhi8(3)
 582 001e 0E94 0000 		call NutMicroDelay
 583 0022 1B98      		cbi 35-32,3
 584 0024 63E0      		ldi r22,lo8(3)
 585 0026 70E0      		ldi r23,hi8(3)
 586 0028 80E0      		ldi r24,hlo8(3)
 587 002a 90E0      		ldi r25,hhi8(3)
 588 002c 0E94 0000 		call NutMicroDelay
 589 0030 1F5F      		subi r17,lo8(-(1))
 590 0032 1930      		cpi r17,lo8(9)
 591 0034 01F4      		brne .L37
 592 0036 0E94 0000 		call SHT11_Start
 593               	/* epilogue start */
 594 003a 1F91      		pop r17
 595 003c 0895      		ret
 596               		.size	SHT11_Reset, .-SHT11_Reset
 597               		.section	.text.SHT11_ByteRD,"ax",@progbits
 598               	.global	SHT11_ByteRD
 599               		.type	SHT11_ByteRD, @function
 600               	SHT11_ByteRD:
 601 0000 FF92      		push r15
 602 0002 0F93      		push r16
 603 0004 1F93      		push r17
 604 0006 CF93      		push r28
 605 0008 DF93      		push r29
 606               	/* prologue: function */
 607               	/* frame size = 0 */
 608 000a F82E      		mov r15,r24
 609 000c 1298      		cbi 34-32,2
 610 000e 10E8      		ldi r17,lo8(-128)
 611 0010 00E0      		ldi r16,lo8(0)
 612 0012 C0E0      		ldi r28,lo8(0)
 613 0014 D0E0      		ldi r29,hi8(0)
 614               	.L42:
 615 0016 1B9A      		sbi 35-32,3
 616 0018 63E0      		ldi r22,lo8(3)
 617 001a 70E0      		ldi r23,hi8(3)
 618 001c 80E0      		ldi r24,hlo8(3)
 619 001e 90E0      		ldi r25,hhi8(3)
 620 0020 0E94 0000 		call NutMicroDelay
 621 0024 0A99      		sbic 33-32,2
 622 0026 012B      		or r16,r17
 623               	.L41:
 624 0028 1B98      		cbi 35-32,3
 625 002a 63E0      		ldi r22,lo8(3)
 626 002c 70E0      		ldi r23,hi8(3)
GAS LISTING C:\Users\Lenovo\AppData\Local\Temp/ccNZv4CU.s 			page 12


 627 002e 80E0      		ldi r24,hlo8(3)
 628 0030 90E0      		ldi r25,hhi8(3)
 629 0032 0E94 0000 		call NutMicroDelay
 630 0036 1695      		lsr r17
 631 0038 2196      		adiw r28,1
 632 003a C830      		cpi r28,8
 633 003c D105      		cpc r29,__zero_reg__
 634 003e 01F4      		brne .L42
 635 0040 FF20      		tst r15
 636 0042 01F0      		breq .L43
 637 0044 129A      		sbi 34-32,2
 638 0046 00C0      		rjmp .L44
 639               	.L43:
 640 0048 1298      		cbi 34-32,2
 641               	.L44:
 642 004a 1B9A      		sbi 35-32,3
 643 004c 66E0      		ldi r22,lo8(6)
 644 004e 70E0      		ldi r23,hi8(6)
 645 0050 80E0      		ldi r24,hlo8(6)
 646 0052 90E0      		ldi r25,hhi8(6)
 647 0054 0E94 0000 		call NutMicroDelay
 648 0058 1B98      		cbi 35-32,3
 649 005a 63E0      		ldi r22,lo8(3)
 650 005c 70E0      		ldi r23,hi8(3)
 651 005e 80E0      		ldi r24,hlo8(3)
 652 0060 90E0      		ldi r25,hhi8(3)
 653 0062 0E94 0000 		call NutMicroDelay
 654 0066 1298      		cbi 34-32,2
 655 0068 802F      		mov r24,r16
 656               	/* epilogue start */
 657 006a DF91      		pop r29
 658 006c CF91      		pop r28
 659 006e 1F91      		pop r17
 660 0070 0F91      		pop r16
 661 0072 FF90      		pop r15
 662 0074 0895      		ret
 663               		.size	SHT11_ByteRD, .-SHT11_ByteRD
 664               		.section	.text.SHT11_ByteWR,"ax",@progbits
 665               	.global	SHT11_ByteWR
 666               		.type	SHT11_ByteWR, @function
 667               	SHT11_ByteWR:
 668 0000 0F93      		push r16
 669 0002 1F93      		push r17
 670 0004 CF93      		push r28
 671 0006 DF93      		push r29
 672               	/* prologue: function */
 673               	/* frame size = 0 */
 674 0008 082F      		mov r16,r24
 675 000a 10E8      		ldi r17,lo8(-128)
 676 000c C0E0      		ldi r28,lo8(0)
 677 000e D0E0      		ldi r29,hi8(0)
 678               	.L50:
 679 0010 812F      		mov r24,r17
 680 0012 8023      		and r24,r16
 681 0014 01F0      		breq .L48
 682 0016 1298      		cbi 34-32,2
 683 0018 00C0      		rjmp .L49
GAS LISTING C:\Users\Lenovo\AppData\Local\Temp/ccNZv4CU.s 			page 13


 684               	.L48:
 685 001a 129A      		sbi 34-32,2
 686               	.L49:
 687 001c 62E0      		ldi r22,lo8(2)
 688 001e 70E0      		ldi r23,hi8(2)
 689 0020 80E0      		ldi r24,hlo8(2)
 690 0022 90E0      		ldi r25,hhi8(2)
 691 0024 0E94 0000 		call NutMicroDelay
 692 0028 1B9A      		sbi 35-32,3
 693 002a 66E0      		ldi r22,lo8(6)
 694 002c 70E0      		ldi r23,hi8(6)
 695 002e 80E0      		ldi r24,hlo8(6)
 696 0030 90E0      		ldi r25,hhi8(6)
 697 0032 0E94 0000 		call NutMicroDelay
 698 0036 1B98      		cbi 35-32,3
 699 0038 63E0      		ldi r22,lo8(3)
 700 003a 70E0      		ldi r23,hi8(3)
 701 003c 80E0      		ldi r24,hlo8(3)
 702 003e 90E0      		ldi r25,hhi8(3)
 703 0040 0E94 0000 		call NutMicroDelay
 704 0044 1695      		lsr r17
 705 0046 2196      		adiw r28,1
 706 0048 C830      		cpi r28,8
 707 004a D105      		cpc r29,__zero_reg__
 708 004c 01F4      		brne .L50
 709 004e 1298      		cbi 34-32,2
 710 0050 1B9A      		sbi 35-32,3
 711 0052 63E0      		ldi r22,lo8(3)
 712 0054 70E0      		ldi r23,hi8(3)
 713 0056 80E0      		ldi r24,hlo8(3)
 714 0058 90E0      		ldi r25,hhi8(3)
 715 005a 0E94 0000 		call NutMicroDelay
 716 005e 11B1      		in r17,33-32
 717 0060 62E0      		ldi r22,lo8(2)
 718 0062 70E0      		ldi r23,hi8(2)
 719 0064 80E0      		ldi r24,hlo8(2)
 720 0066 90E0      		ldi r25,hhi8(2)
 721 0068 0E94 0000 		call NutMicroDelay
 722 006c 1B98      		cbi 35-32,3
 723 006e 812F      		mov r24,r17
 724 0070 8470      		andi r24,lo8(4)
 725               	/* epilogue start */
 726 0072 DF91      		pop r29
 727 0074 CF91      		pop r28
 728 0076 1F91      		pop r17
 729 0078 0F91      		pop r16
 730 007a 0895      		ret
 731               		.size	SHT11_ByteWR, .-SHT11_ByteWR
 732               		.section	.text.SHT11_TEMP,"ax",@progbits
 733               	.global	SHT11_TEMP
 734               		.type	SHT11_TEMP, @function
 735               	SHT11_TEMP:
 736 0000 DF92      		push r13
 737 0002 EF92      		push r14
 738 0004 FF92      		push r15
 739 0006 0F93      		push r16
 740 0008 1F93      		push r17
GAS LISTING C:\Users\Lenovo\AppData\Local\Temp/ccNZv4CU.s 			page 14


 741               	/* prologue: function */
 742               	/* frame size = 0 */
 743 000a 0E94 0000 		call SHT11_Start
 744 000e 83E0      		ldi r24,lo8(3)
 745 0010 0E94 0000 		call SHT11_ByteWR
 746 0014 D82E      		mov r13,r24
 747 0016 EE24      		clr r14
 748 0018 FF24      		clr r15
 749 001a 8701      		movw r16,r14
 750               	.L55:
 751 001c 65E0      		ldi r22,lo8(5)
 752 001e 70E0      		ldi r23,hi8(5)
 753 0020 80E0      		ldi r24,hlo8(5)
 754 0022 90E0      		ldi r25,hhi8(5)
 755 0024 0E94 0000 		call NutMicroDelay
 756 0028 0A9B      		sbis 33-32,2
 757 002a 00C0      		rjmp .L54
 758 002c 0894      		sec
 759 002e E11C      		adc r14,__zero_reg__
 760 0030 F11C      		adc r15,__zero_reg__
 761 0032 011D      		adc r16,__zero_reg__
 762 0034 111D      		adc r17,__zero_reg__
 763 0036 80E8      		ldi r24,lo8(400000)
 764 0038 E816      		cp r14,r24
 765 003a 8AE1      		ldi r24,hi8(400000)
 766 003c F806      		cpc r15,r24
 767 003e 86E0      		ldi r24,hlo8(400000)
 768 0040 0807      		cpc r16,r24
 769 0042 80E0      		ldi r24,hhi8(400000)
 770 0044 1807      		cpc r17,r24
 771 0046 01F4      		brne .L55
 772               	.L54:
 773 0048 0A99      		sbic 33-32,2
 774 004a D394      		inc r13
 775               	.L56:
 776 004c 81E0      		ldi r24,lo8(1)
 777 004e 0E94 0000 		call SHT11_ByteRD
 778 0052 182F      		mov r17,r24
 779 0054 00E0      		ldi r16,lo8(0)
 780 0056 1093 0000 		sts (TEMP_val)+1,r17
 781 005a 0093 0000 		sts TEMP_val,r16
 782 005e 81E0      		ldi r24,lo8(1)
 783 0060 0E94 0000 		call SHT11_ByteRD
 784 0064 080F      		add r16,r24
 785 0066 111D      		adc r17,__zero_reg__
 786 0068 1093 0000 		sts (TEMP_val)+1,r17
 787 006c 0093 0000 		sts TEMP_val,r16
 788 0070 80E0      		ldi r24,lo8(0)
 789 0072 0E94 0000 		call SHT11_ByteRD
 790 0076 8093 0000 		sts TEMP_cksum,r24
 791 007a 8D2D      		mov r24,r13
 792               	/* epilogue start */
 793 007c 1F91      		pop r17
 794 007e 0F91      		pop r16
 795 0080 FF90      		pop r15
 796 0082 EF90      		pop r14
 797 0084 DF90      		pop r13
GAS LISTING C:\Users\Lenovo\AppData\Local\Temp/ccNZv4CU.s 			page 15


 798 0086 0895      		ret
 799               		.size	SHT11_TEMP, .-SHT11_TEMP
 800               		.section	.text.SHT11_HUMI,"ax",@progbits
 801               	.global	SHT11_HUMI
 802               		.type	SHT11_HUMI, @function
 803               	SHT11_HUMI:
 804 0000 DF92      		push r13
 805 0002 EF92      		push r14
 806 0004 FF92      		push r15
 807 0006 0F93      		push r16
 808 0008 1F93      		push r17
 809               	/* prologue: function */
 810               	/* frame size = 0 */
 811 000a 85E0      		ldi r24,lo8(5)
 812 000c 0E94 0000 		call SHT11_ByteWR
 813 0010 D82E      		mov r13,r24
 814 0012 EE24      		clr r14
 815 0014 FF24      		clr r15
 816 0016 8701      		movw r16,r14
 817               	.L61:
 818 0018 65E0      		ldi r22,lo8(5)
 819 001a 70E0      		ldi r23,hi8(5)
 820 001c 80E0      		ldi r24,hlo8(5)
 821 001e 90E0      		ldi r25,hhi8(5)
 822 0020 0E94 0000 		call NutMicroDelay
 823 0024 0A9B      		sbis 33-32,2
 824 0026 00C0      		rjmp .L60
 825 0028 0894      		sec
 826 002a E11C      		adc r14,__zero_reg__
 827 002c F11C      		adc r15,__zero_reg__
 828 002e 011D      		adc r16,__zero_reg__
 829 0030 111D      		adc r17,__zero_reg__
 830 0032 80E8      		ldi r24,lo8(400000)
 831 0034 E816      		cp r14,r24
 832 0036 8AE1      		ldi r24,hi8(400000)
 833 0038 F806      		cpc r15,r24
 834 003a 86E0      		ldi r24,hlo8(400000)
 835 003c 0807      		cpc r16,r24
 836 003e 80E0      		ldi r24,hhi8(400000)
 837 0040 1807      		cpc r17,r24
 838 0042 01F4      		brne .L61
 839               	.L60:
 840 0044 0A99      		sbic 33-32,2
 841 0046 D394      		inc r13
 842               	.L62:
 843 0048 81E0      		ldi r24,lo8(1)
 844 004a 0E94 0000 		call SHT11_ByteRD
 845 004e 182F      		mov r17,r24
 846 0050 00E0      		ldi r16,lo8(0)
 847 0052 1093 0000 		sts (HUMI_val)+1,r17
 848 0056 0093 0000 		sts HUMI_val,r16
 849 005a 81E0      		ldi r24,lo8(1)
 850 005c 0E94 0000 		call SHT11_ByteRD
 851 0060 080F      		add r16,r24
 852 0062 111D      		adc r17,__zero_reg__
 853 0064 1093 0000 		sts (HUMI_val)+1,r17
 854 0068 0093 0000 		sts HUMI_val,r16
GAS LISTING C:\Users\Lenovo\AppData\Local\Temp/ccNZv4CU.s 			page 16


 855 006c 80E0      		ldi r24,lo8(0)
 856 006e 0E94 0000 		call SHT11_ByteRD
 857 0072 8093 0000 		sts HUMI_cksum,r24
 858 0076 8D2D      		mov r24,r13
 859               	/* epilogue start */
 860 0078 1F91      		pop r17
 861 007a 0F91      		pop r16
 862 007c FF90      		pop r15
 863 007e EF90      		pop r14
 864 0080 DF90      		pop r13
 865 0082 0895      		ret
 866               		.size	SHT11_HUMI, .-SHT11_HUMI
 867               		.data
 868               	.LC6:
 869 0015 0D0A 0D0A 		.string	"\r\n\r\n= Welcome to RemLab K2 =\r\n"
 869      3D20 5765 
 869      6C63 6F6D 
 869      6520 746F 
 869      2052 656D 
 870               	.LC7:
 871 0034 312E 6B6F 		.ascii	"1.kon"
 871      6E
 872 0039 7472 6F6C 		.string	"trol motor stepper\r\n2.tampilkan pengukuran suhu\r\n3.kontrol led\r\n"
 872      206D 6F74 
 872      6F72 2073 
 872      7465 7070 
 872      6572 0D0A 
 873               	.LC8:
 874 007a 6D61 7375 		.string	"masukkan pilihan:"
 874      6B6B 616E 
 874      2070 696C 
 874      6968 616E 
 874      3A00 
 875               	.LC9:
 876 008c 2563 00   		.string	"%c"
 877               	.LC10:
 878 008f 0D0A 0D0A 		.string	"\r\n\r\nkontrol motor stepper\r\n"
 878      6B6F 6E74 
 878      726F 6C20 
 878      6D6F 746F 
 878      7220 7374 
 879               	.LC11:
 880 00ab 7065 7269 		.string	"perintah [<step><space><1=kanan><space><speed>]:"
 880      6E74 6168 
 880      205B 3C73 
 880      7465 703E 
 880      3C73 7061 
 881               	.LC12:
 882 00dc 2000      		.string	" "
 883               	.LC13:
 884 00de 2564 00   		.string	"%d"
 885               	.LC14:
 886 00e1 0D0A 6D65 		.string	"\r\nmemutar motor %d/200 step dengan kecepatan %d kekanan\r\n"
 886      6D75 7461 
 886      7220 6D6F 
 886      746F 7220 
 886      2564 2F32 
GAS LISTING C:\Users\Lenovo\AppData\Local\Temp/ccNZv4CU.s 			page 17


 887               	.LC15:
 888 011b 0D0A 6D65 		.string	"\r\nmemutar motor %d/200 step dengan kecepatan %d kekiri\r\n"
 888      6D75 7461 
 888      7220 6D6F 
 888      746F 7220 
 888      2564 2F32 
 889               	.LC16:
 890 0154 0D0A 0D0A 		.string	"\r\n\r\n=======||K2||=======\r\nSuhu : %2d oC\r\nKelembapan : %2d %%\r\n"
 890      3D3D 3D3D 
 890      3D3D 3D7C 
 890      7C4B 327C 
 890      7C3D 3D3D 
 891               	.LC17:
 892 0193 0D0A 0D0A 		.string	"\r\n\r\nkontrol led\r\n"
 892      6B6F 6E74 
 892      726F 6C20 
 892      6C65 640D 
 892      0A00 
 893               	.LC18:
 894 01a5 7065 7269 		.string	"perintah [<urutan led><space><durasi><space><jumlah blink]:"
 894      6E74 6168 
 894      205B 3C75 
 894      7275 7461 
 894      6E20 6C65 
 895               	.LC19:
 896 01e1 0D0A 6B6F 		.string	"\r\nkontrol led %d blink sebanyak %d dengan kecepatan %f\r\n"
 896      6E74 726F 
 896      6C20 6C65 
 896      6420 2564 
 896      2062 6C69 
 897               		.section	.text.Thread4,"ax",@progbits
 898               	.global	Thread4
 899               		.type	Thread4, @function
 900               	Thread4:
 901 0000 DF93      		push r29
 902 0002 CF93      		push r28
 903 0004 CDB7      		in r28,__SP_L__
 904 0006 DEB7      		in r29,__SP_H__
 905 0008 AD97      		sbiw r28,45
 906 000a 0FB6      		in __tmp_reg__,__SREG__
 907 000c F894      		cli
 908 000e DEBF      		out __SP_H__,r29
 909 0010 0FBE      		out __SREG__,__tmp_reg__
 910 0012 CDBF      		out __SP_L__,r28
 911               	/* prologue: function */
 912               	/* frame size = 45 */
 913 0014 0E94 0000 		call InitUART0
 914 0018 BEE0      		ldi r27,lo8(14)
 915 001a AB2E      		mov r10,r27
 916 001c B12C      		mov r11,__zero_reg__
 917 001e AC0E      		add r10,r28
 918 0020 BD1E      		adc r11,r29
 919 0022 A0E0      		ldi r26,lo8(.LC13)
 920 0024 CA2E      		mov r12,r26
 921 0026 A0E0      		ldi r26,hi8(.LC13)
 922 0028 DA2E      		mov r13,r26
 923 002a FAE0      		ldi r31,lo8(10)
GAS LISTING C:\Users\Lenovo\AppData\Local\Temp/ccNZv4CU.s 			page 18


 924 002c 8F2E      		mov r8,r31
 925 002e 912C      		mov r9,__zero_reg__
 926 0030 8C0E      		add r8,r28
 927 0032 9D1E      		adc r9,r29
 928 0034 ECE0      		ldi r30,lo8(12)
 929 0036 6E2E      		mov r6,r30
 930 0038 712C      		mov r7,__zero_reg__
 931 003a 6C0E      		add r6,r28
 932 003c 7D1E      		adc r7,r29
 933 003e 70E0      		ldi r23,lo8(.LC15)
 934 0040 472E      		mov r4,r23
 935 0042 70E0      		ldi r23,hi8(.LC15)
 936 0044 572E      		mov r5,r23
 937 0046 60E0      		ldi r22,lo8(.LC14)
 938 0048 262E      		mov r2,r22
 939 004a 60E0      		ldi r22,hi8(.LC14)
 940 004c 362E      		mov r3,r22
 941               	.L95:
 942 004e 80E2      		ldi r24,lo8(32)
 943 0050 D501      		movw r26,r10
 944 0052 1D92      		st X+,__zero_reg__
 945 0054 8A95      	        dec r24
 946 0056 01F4      		brne .-6
 947 0058 6091 0000 		lds r22,uart
 948 005c 7091 0000 		lds r23,(uart)+1
 949 0060 80E0      		ldi r24,lo8(.LC6)
 950 0062 90E0      		ldi r25,hi8(.LC6)
 951 0064 0E94 0000 		call fputs
 952 0068 6091 0000 		lds r22,uart
 953 006c 7091 0000 		lds r23,(uart)+1
 954 0070 80E0      		ldi r24,lo8(.LC7)
 955 0072 90E0      		ldi r25,hi8(.LC7)
 956 0074 0E94 0000 		call fputs
 957 0078 6091 0000 		lds r22,uart
 958 007c 7091 0000 		lds r23,(uart)+1
 959 0080 80E0      		ldi r24,lo8(.LC8)
 960 0082 90E0      		ldi r25,hi8(.LC8)
 961 0084 0E94 0000 		call fputs
 962 0088 8091 0000 		lds r24,uart
 963 008c 9091 0000 		lds r25,(uart)+1
 964 0090 0E94 0000 		call fflush
 965 0094 4091 0000 		lds r20,uart
 966 0098 5091 0000 		lds r21,(uart)+1
 967 009c 80E0      		ldi r24,lo8(inbuf)
 968 009e 90E0      		ldi r25,hi8(inbuf)
 969 00a0 62E3      		ldi r22,lo8(50)
 970 00a2 70E0      		ldi r23,hi8(50)
 971 00a4 0E94 0000 		call fgets
 972 00a8 80E0      		ldi r24,lo8(inbuf)
 973 00aa 90E0      		ldi r25,hi8(inbuf)
 974 00ac 6AE0      		ldi r22,lo8(10)
 975 00ae 70E0      		ldi r23,hi8(10)
 976 00b0 0E94 0000 		call strchr
 977 00b4 FC01      		movw r30,r24
 978 00b6 0097      		sbiw r24,0
 979 00b8 01F0      		breq .L67
 980 00ba 1082      		st Z,__zero_reg__
GAS LISTING C:\Users\Lenovo\AppData\Local\Temp/ccNZv4CU.s 			page 19


 981               	.L67:
 982 00bc 00D0      		rcall .
 983 00be 00D0      		rcall .
 984 00c0 00D0      		rcall .
 985 00c2 EDB7      		in r30,__SP_L__
 986 00c4 FEB7      		in r31,__SP_H__
 987 00c6 3196      		adiw r30,1
 988 00c8 80E0      		ldi r24,lo8(inbuf)
 989 00ca 90E0      		ldi r25,hi8(inbuf)
 990 00cc ADB7      		in r26,__SP_L__
 991 00ce BEB7      		in r27,__SP_H__
 992 00d0 1296      		adiw r26,1+1
 993 00d2 9C93      		st X,r25
 994 00d4 8E93      		st -X,r24
 995 00d6 1197      		sbiw r26,1
 996 00d8 A0E0      		ldi r26,lo8(.LC9)
 997 00da B0E0      		ldi r27,hi8(.LC9)
 998 00dc B383      		std Z+3,r27
 999 00de A283      		std Z+2,r26
 1000 00e0 81E0      		ldi r24,lo8(1)
 1001 00e2 90E0      		ldi r25,hi8(1)
 1002 00e4 8C0F      		add r24,r28
 1003 00e6 9D1F      		adc r25,r29
 1004 00e8 9583      		std Z+5,r25
 1005 00ea 8483      		std Z+4,r24
 1006 00ec 0E94 0000 		call sscanf
 1007 00f0 ADB7      		in r26,__SP_L__
 1008 00f2 BEB7      		in r27,__SP_H__
 1009 00f4 1696      		adiw r26,6
 1010 00f6 0FB6      		in __tmp_reg__,__SREG__
 1011 00f8 F894      		cli
 1012 00fa BEBF      		out __SP_H__,r27
 1013 00fc 0FBE      		out __SREG__,__tmp_reg__
 1014 00fe ADBF      		out __SP_L__,r26
 1015 0100 8981      		ldd r24,Y+1
 1016 0102 8233      		cpi r24,lo8(50)
 1017 0104 01F4      		brne .+2
 1018 0106 00C0      		rjmp .L69
 1019 0108 8333      		cpi r24,lo8(51)
 1020 010a 01F4      		brne .+2
 1021 010c 00C0      		rjmp .L70
 1022 010e 8133      		cpi r24,lo8(49)
 1023 0110 01F0      		breq .+2
 1024 0112 00C0      		rjmp .L95
 1025 0114 6091 0000 		lds r22,uart
 1026 0118 7091 0000 		lds r23,(uart)+1
 1027 011c 80E0      		ldi r24,lo8(.LC10)
 1028 011e 90E0      		ldi r25,hi8(.LC10)
 1029 0120 0E94 0000 		call fputs
 1030 0124 6091 0000 		lds r22,uart
 1031 0128 7091 0000 		lds r23,(uart)+1
 1032 012c 80E0      		ldi r24,lo8(.LC11)
 1033 012e 90E0      		ldi r25,hi8(.LC11)
 1034 0130 0E94 0000 		call fputs
 1035 0134 8091 0000 		lds r24,uart
 1036 0138 9091 0000 		lds r25,(uart)+1
 1037 013c 0E94 0000 		call fflush
GAS LISTING C:\Users\Lenovo\AppData\Local\Temp/ccNZv4CU.s 			page 20


 1038 0140 4091 0000 		lds r20,uart
 1039 0144 5091 0000 		lds r21,(uart)+1
 1040 0148 80E0      		ldi r24,lo8(inbuf_motor)
 1041 014a 90E0      		ldi r25,hi8(inbuf_motor)
 1042 014c 62E3      		ldi r22,lo8(50)
 1043 014e 70E0      		ldi r23,hi8(50)
 1044 0150 0E94 0000 		call fgets
 1045 0154 80E0      		ldi r24,lo8(inbuf_motor)
 1046 0156 90E0      		ldi r25,hi8(inbuf_motor)
 1047 0158 6AE0      		ldi r22,lo8(10)
 1048 015a 70E0      		ldi r23,hi8(10)
 1049 015c 0E94 0000 		call strchr
 1050 0160 FC01      		movw r30,r24
 1051 0162 0097      		sbiw r24,0
 1052 0164 01F0      		breq .L71
 1053 0166 1082      		st Z,__zero_reg__
 1054               	.L71:
 1055 0168 8501      		movw r16,r10
 1056 016a EE24      		clr r14
 1057 016c FF24      		clr r15
 1058               	.L75:
 1059 016e E114      		cp r14,__zero_reg__
 1060 0170 F104      		cpc r15,__zero_reg__
 1061 0172 01F0      		breq .L72
 1062 0174 80E0      		ldi r24,lo8(0)
 1063 0176 90E0      		ldi r25,hi8(0)
 1064 0178 00C0      		rjmp .L73
 1065               	.L72:
 1066 017a 80E0      		ldi r24,lo8(inbuf_motor)
 1067 017c 90E0      		ldi r25,hi8(inbuf_motor)
 1068               	.L73:
 1069 017e 60E0      		ldi r22,lo8(.LC12)
 1070 0180 70E0      		ldi r23,hi8(.LC12)
 1071 0182 0E94 0000 		call strtok
 1072 0186 F801      		movw r30,r16
 1073 0188 9183      		std Z+1,r25
 1074 018a 8083      		st Z,r24
 1075 018c 892B      		or r24,r25
 1076 018e 01F0      		breq .L74
 1077 0190 0894      		sec
 1078 0192 E11C      		adc r14,__zero_reg__
 1079 0194 F11C      		adc r15,__zero_reg__
 1080 0196 0E5F      		subi r16,lo8(-(2))
 1081 0198 1F4F      		sbci r17,hi8(-(2))
 1082 019a F0E1      		ldi r31,lo8(16)
 1083 019c EF16      		cp r14,r31
 1084 019e F104      		cpc r15,__zero_reg__
 1085 01a0 01F4      		brne .L75
 1086               	.L74:
 1087 01a2 81E0      		ldi r24,lo8(1)
 1088 01a4 90E0      		ldi r25,hi8(1)
 1089 01a6 9D83      		std Y+5,r25
 1090 01a8 8C83      		std Y+4,r24
 1091 01aa 84E6      		ldi r24,lo8(100)
 1092 01ac 90E0      		ldi r25,hi8(100)
 1093 01ae 9F83      		std Y+7,r25
 1094 01b0 8E83      		std Y+6,r24
GAS LISTING C:\Users\Lenovo\AppData\Local\Temp/ccNZv4CU.s 			page 21


 1095 01b2 00D0      		rcall .
 1096 01b4 00D0      		rcall .
 1097 01b6 00D0      		rcall .
 1098 01b8 EDB7      		in r30,__SP_L__
 1099 01ba FEB7      		in r31,__SP_H__
 1100 01bc 3196      		adiw r30,1
 1101 01be 8E85      		ldd r24,Y+14
 1102 01c0 9F85      		ldd r25,Y+15
 1103 01c2 ADB7      		in r26,__SP_L__
 1104 01c4 BEB7      		in r27,__SP_H__
 1105 01c6 1296      		adiw r26,1+1
 1106 01c8 9C93      		st X,r25
 1107 01ca 8E93      		st -X,r24
 1108 01cc 1197      		sbiw r26,1
 1109 01ce D382      		std Z+3,r13
 1110 01d0 C282      		std Z+2,r12
 1111 01d2 CE01      		movw r24,r28
 1112 01d4 0296      		adiw r24,2
 1113 01d6 9583      		std Z+5,r25
 1114 01d8 8483      		std Z+4,r24
 1115 01da 0E94 0000 		call sscanf
 1116 01de EDB7      		in r30,__SP_L__
 1117 01e0 FEB7      		in r31,__SP_H__
 1118 01e2 3696      		adiw r30,6
 1119 01e4 0FB6      		in __tmp_reg__,__SREG__
 1120 01e6 F894      		cli
 1121 01e8 FEBF      		out __SP_H__,r31
 1122 01ea 0FBE      		out __SREG__,__tmp_reg__
 1123 01ec EDBF      		out __SP_L__,r30
 1124 01ee E114      		cp r14,__zero_reg__
 1125 01f0 F104      		cpc r15,__zero_reg__
 1126 01f2 01F4      		brne .+2
 1127 01f4 00C0      		rjmp .L76
 1128 01f6 00D0      		rcall .
 1129 01f8 00D0      		rcall .
 1130 01fa 00D0      		rcall .
 1131 01fc EDB7      		in r30,__SP_L__
 1132 01fe FEB7      		in r31,__SP_H__
 1133 0200 3196      		adiw r30,1
 1134 0202 8889      		ldd r24,Y+16
 1135 0204 9989      		ldd r25,Y+17
 1136 0206 ADB7      		in r26,__SP_L__
 1137 0208 BEB7      		in r27,__SP_H__
 1138 020a 1296      		adiw r26,1+1
 1139 020c 9C93      		st X,r25
 1140 020e 8E93      		st -X,r24
 1141 0210 1197      		sbiw r26,1
 1142 0212 D382      		std Z+3,r13
 1143 0214 C282      		std Z+2,r12
 1144 0216 CE01      		movw r24,r28
 1145 0218 0496      		adiw r24,4
 1146 021a 9583      		std Z+5,r25
 1147 021c 8483      		std Z+4,r24
 1148 021e 0E94 0000 		call sscanf
 1149 0222 EDB7      		in r30,__SP_L__
 1150 0224 FEB7      		in r31,__SP_H__
 1151 0226 3696      		adiw r30,6
GAS LISTING C:\Users\Lenovo\AppData\Local\Temp/ccNZv4CU.s 			page 22


 1152 0228 0FB6      		in __tmp_reg__,__SREG__
 1153 022a F894      		cli
 1154 022c FEBF      		out __SP_H__,r31
 1155 022e 0FBE      		out __SREG__,__tmp_reg__
 1156 0230 EDBF      		out __SP_L__,r30
 1157 0232 F1E0      		ldi r31,lo8(1)
 1158 0234 EF16      		cp r14,r31
 1159 0236 F104      		cpc r15,__zero_reg__
 1160 0238 01F0      		breq .L76
 1161 023a 00D0      		rcall .
 1162 023c 00D0      		rcall .
 1163 023e 00D0      		rcall .
 1164 0240 EDB7      		in r30,__SP_L__
 1165 0242 FEB7      		in r31,__SP_H__
 1166 0244 3196      		adiw r30,1
 1167 0246 8A89      		ldd r24,Y+18
 1168 0248 9B89      		ldd r25,Y+19
 1169 024a ADB7      		in r26,__SP_L__
 1170 024c BEB7      		in r27,__SP_H__
 1171 024e 1296      		adiw r26,1+1
 1172 0250 9C93      		st X,r25
 1173 0252 8E93      		st -X,r24
 1174 0254 1197      		sbiw r26,1
 1175 0256 D382      		std Z+3,r13
 1176 0258 C282      		std Z+2,r12
 1177 025a CE01      		movw r24,r28
 1178 025c 0696      		adiw r24,6
 1179 025e 9583      		std Z+5,r25
 1180 0260 8483      		std Z+4,r24
 1181 0262 0E94 0000 		call sscanf
 1182 0266 EDB7      		in r30,__SP_L__
 1183 0268 FEB7      		in r31,__SP_H__
 1184 026a 3696      		adiw r30,6
 1185 026c 0FB6      		in __tmp_reg__,__SREG__
 1186 026e F894      		cli
 1187 0270 FEBF      		out __SP_H__,r31
 1188 0272 0FBE      		out __SREG__,__tmp_reg__
 1189 0274 EDBF      		out __SP_L__,r30
 1190               	.L76:
 1191 0276 8C81      		ldd r24,Y+4
 1192 0278 9D81      		ldd r25,Y+5
 1193 027a 2091 0000 		lds r18,uart
 1194 027e 3091 0000 		lds r19,(uart)+1
 1195 0282 892B      		or r24,r25
 1196 0284 01F0      		breq .L77
 1197 0286 8DB7      		in r24,__SP_L__
 1198 0288 9EB7      		in r25,__SP_H__
 1199 028a 0897      		sbiw r24,8
 1200 028c 0FB6      		in __tmp_reg__,__SREG__
 1201 028e F894      		cli
 1202 0290 9EBF      		out __SP_H__,r25
 1203 0292 0FBE      		out __SREG__,__tmp_reg__
 1204 0294 8DBF      		out __SP_L__,r24
 1205 0296 EDB7      		in r30,__SP_L__
 1206 0298 FEB7      		in r31,__SP_H__
 1207 029a 3196      		adiw r30,1
 1208 029c ADB7      		in r26,__SP_L__
GAS LISTING C:\Users\Lenovo\AppData\Local\Temp/ccNZv4CU.s 			page 23


 1209 029e BEB7      		in r27,__SP_H__
 1210 02a0 1296      		adiw r26,1+1
 1211 02a2 3C93      		st X,r19
 1212 02a4 2E93      		st -X,r18
 1213 02a6 1197      		sbiw r26,1
 1214 02a8 3382      		std Z+3,r3
 1215 02aa 2282      		std Z+2,r2
 1216 02ac 8A81      		ldd r24,Y+2
 1217 02ae 9B81      		ldd r25,Y+3
 1218 02b0 880F      		lsl r24
 1219 02b2 991F      		rol r25
 1220 02b4 880F      		lsl r24
 1221 02b6 991F      		rol r25
 1222 02b8 9583      		std Z+5,r25
 1223 02ba 8483      		std Z+4,r24
 1224 02bc 8E81      		ldd r24,Y+6
 1225 02be 9F81      		ldd r25,Y+7
 1226 02c0 9783      		std Z+7,r25
 1227 02c2 8683      		std Z+6,r24
 1228 02c4 0E94 0000 		call fprintf
 1229 02c8 00E0      		ldi r16,lo8(0)
 1230 02ca 10E0      		ldi r17,hi8(0)
 1231 02cc EDB7      		in r30,__SP_L__
 1232 02ce FEB7      		in r31,__SP_H__
 1233 02d0 3896      		adiw r30,8
 1234 02d2 0FB6      		in __tmp_reg__,__SREG__
 1235 02d4 F894      		cli
 1236 02d6 FEBF      		out __SP_H__,r31
 1237 02d8 0FBE      		out __SREG__,__tmp_reg__
 1238 02da EDBF      		out __SP_L__,r30
 1239 02dc 00C0      		rjmp .L78
 1240               	.L79:
 1241 02de 8E81      		ldd r24,Y+6
 1242 02e0 9F81      		ldd r25,Y+7
 1243 02e2 0E94 0000 		call rotate_Right
 1244 02e6 0F5F      		subi r16,lo8(-(1))
 1245 02e8 1F4F      		sbci r17,hi8(-(1))
 1246               	.L78:
 1247 02ea 8A81      		ldd r24,Y+2
 1248 02ec 9B81      		ldd r25,Y+3
 1249 02ee 0817      		cp r16,r24
 1250 02f0 1907      		cpc r17,r25
 1251 02f2 04F0      		brlt .L79
 1252 02f4 00C0      		rjmp .L95
 1253               	.L77:
 1254 02f6 8DB7      		in r24,__SP_L__
 1255 02f8 9EB7      		in r25,__SP_H__
 1256 02fa 0897      		sbiw r24,8
 1257 02fc 0FB6      		in __tmp_reg__,__SREG__
 1258 02fe F894      		cli
 1259 0300 9EBF      		out __SP_H__,r25
 1260 0302 0FBE      		out __SREG__,__tmp_reg__
 1261 0304 8DBF      		out __SP_L__,r24
 1262 0306 EDB7      		in r30,__SP_L__
 1263 0308 FEB7      		in r31,__SP_H__
 1264 030a 3196      		adiw r30,1
 1265 030c ADB7      		in r26,__SP_L__
GAS LISTING C:\Users\Lenovo\AppData\Local\Temp/ccNZv4CU.s 			page 24


 1266 030e BEB7      		in r27,__SP_H__
 1267 0310 1296      		adiw r26,1+1
 1268 0312 3C93      		st X,r19
 1269 0314 2E93      		st -X,r18
 1270 0316 1197      		sbiw r26,1
 1271 0318 5382      		std Z+3,r5
 1272 031a 4282      		std Z+2,r4
 1273 031c 8A81      		ldd r24,Y+2
 1274 031e 9B81      		ldd r25,Y+3
 1275 0320 880F      		lsl r24
 1276 0322 991F      		rol r25
 1277 0324 880F      		lsl r24
 1278 0326 991F      		rol r25
 1279 0328 9583      		std Z+5,r25
 1280 032a 8483      		std Z+4,r24
 1281 032c 8E81      		ldd r24,Y+6
 1282 032e 9F81      		ldd r25,Y+7
 1283 0330 9783      		std Z+7,r25
 1284 0332 8683      		std Z+6,r24
 1285 0334 0E94 0000 		call fprintf
 1286 0338 00E0      		ldi r16,lo8(0)
 1287 033a 10E0      		ldi r17,hi8(0)
 1288 033c EDB7      		in r30,__SP_L__
 1289 033e FEB7      		in r31,__SP_H__
 1290 0340 3896      		adiw r30,8
 1291 0342 0FB6      		in __tmp_reg__,__SREG__
 1292 0344 F894      		cli
 1293 0346 FEBF      		out __SP_H__,r31
 1294 0348 0FBE      		out __SREG__,__tmp_reg__
 1295 034a EDBF      		out __SP_L__,r30
 1296 034c 00C0      		rjmp .L80
 1297               	.L81:
 1298 034e 8E81      		ldd r24,Y+6
 1299 0350 9F81      		ldd r25,Y+7
 1300 0352 0E94 0000 		call rotate_Left
 1301 0356 0F5F      		subi r16,lo8(-(1))
 1302 0358 1F4F      		sbci r17,hi8(-(1))
 1303               	.L80:
 1304 035a 8A81      		ldd r24,Y+2
 1305 035c 9B81      		ldd r25,Y+3
 1306 035e 0817      		cp r16,r24
 1307 0360 1907      		cpc r17,r25
 1308 0362 04F0      		brlt .L81
 1309 0364 00C0      		rjmp .L95
 1310               	.L69:
 1311 0366 0E94 0000 		call SHT11_Reset
 1312 036a 0E94 0000 		call SHT11_HUMI
 1313 036e 182F      		mov r17,r24
 1314 0370 0E94 0000 		call SHT11_TEMP
 1315 0374 180F      		add r17,r24
 1316 0376 01F0      		breq .L82
 1317 0378 0E94 0000 		call SHT11_Reset
 1318 037c 00C0      		rjmp .L83
 1319               	.L82:
 1320 037e 0E94 0000 		call calc_sth11
 1321               	.L83:
 1322 0382 8DB7      		in r24,__SP_L__
GAS LISTING C:\Users\Lenovo\AppData\Local\Temp/ccNZv4CU.s 			page 25


 1323 0384 9EB7      		in r25,__SP_H__
 1324 0386 0897      		sbiw r24,8
 1325 0388 0FB6      		in __tmp_reg__,__SREG__
 1326 038a F894      		cli
 1327 038c 9EBF      		out __SP_H__,r25
 1328 038e 0FBE      		out __SREG__,__tmp_reg__
 1329 0390 8DBF      		out __SP_L__,r24
 1330 0392 EDB7      		in r30,__SP_L__
 1331 0394 FEB7      		in r31,__SP_H__
 1332 0396 3196      		adiw r30,1
 1333 0398 8091 0000 		lds r24,uart
 1334 039c 9091 0000 		lds r25,(uart)+1
 1335 03a0 ADB7      		in r26,__SP_L__
 1336 03a2 BEB7      		in r27,__SP_H__
 1337 03a4 1296      		adiw r26,1+1
 1338 03a6 9C93      		st X,r25
 1339 03a8 8E93      		st -X,r24
 1340 03aa 1197      		sbiw r26,1
 1341 03ac 80E0      		ldi r24,lo8(.LC16)
 1342 03ae 90E0      		ldi r25,hi8(.LC16)
 1343 03b0 9383      		std Z+3,r25
 1344 03b2 8283      		std Z+2,r24
 1345 03b4 8091 0000 		lds r24,TEMP_val
 1346 03b8 9091 0000 		lds r25,(TEMP_val)+1
 1347 03bc 9583      		std Z+5,r25
 1348 03be 8483      		std Z+4,r24
 1349 03c0 8091 0000 		lds r24,HUMI_val
 1350 03c4 9091 0000 		lds r25,(HUMI_val)+1
 1351 03c8 9783      		std Z+7,r25
 1352 03ca 8683      		std Z+6,r24
 1353 03cc 0E94 0000 		call fprintf
 1354 03d0 ADB7      		in r26,__SP_L__
 1355 03d2 BEB7      		in r27,__SP_H__
 1356 03d4 1896      		adiw r26,8
 1357 03d6 0FB6      		in __tmp_reg__,__SREG__
 1358 03d8 F894      		cli
 1359 03da BEBF      		out __SP_H__,r27
 1360 03dc 0FBE      		out __SREG__,__tmp_reg__
 1361 03de ADBF      		out __SP_L__,r26
 1362 03e0 00C0      		rjmp .L95
 1363               	.L70:
 1364 03e2 6091 0000 		lds r22,uart
 1365 03e6 7091 0000 		lds r23,(uart)+1
 1366 03ea 80E0      		ldi r24,lo8(.LC17)
 1367 03ec 90E0      		ldi r25,hi8(.LC17)
 1368 03ee 0E94 0000 		call fputs
 1369 03f2 6091 0000 		lds r22,uart
 1370 03f6 7091 0000 		lds r23,(uart)+1
 1371 03fa 80E0      		ldi r24,lo8(.LC18)
 1372 03fc 90E0      		ldi r25,hi8(.LC18)
 1373 03fe 0E94 0000 		call fputs
 1374 0402 8091 0000 		lds r24,uart
 1375 0406 9091 0000 		lds r25,(uart)+1
 1376 040a 0E94 0000 		call fflush
 1377 040e 4091 0000 		lds r20,uart
 1378 0412 5091 0000 		lds r21,(uart)+1
 1379 0416 80E0      		ldi r24,lo8(inbuf_led)
GAS LISTING C:\Users\Lenovo\AppData\Local\Temp/ccNZv4CU.s 			page 26


 1380 0418 90E0      		ldi r25,hi8(inbuf_led)
 1381 041a 62E3      		ldi r22,lo8(50)
 1382 041c 70E0      		ldi r23,hi8(50)
 1383 041e 0E94 0000 		call fgets
 1384 0422 80E0      		ldi r24,lo8(inbuf_led)
 1385 0424 90E0      		ldi r25,hi8(inbuf_led)
 1386 0426 6AE0      		ldi r22,lo8(10)
 1387 0428 70E0      		ldi r23,hi8(10)
 1388 042a 0E94 0000 		call strchr
 1389 042e FC01      		movw r30,r24
 1390 0430 0097      		sbiw r24,0
 1391 0432 01F0      		breq .L84
 1392 0434 1082      		st Z,__zero_reg__
 1393               	.L84:
 1394 0436 8501      		movw r16,r10
 1395 0438 EE24      		clr r14
 1396 043a FF24      		clr r15
 1397               	.L88:
 1398 043c E114      		cp r14,__zero_reg__
 1399 043e F104      		cpc r15,__zero_reg__
 1400 0440 01F0      		breq .L85
 1401 0442 80E0      		ldi r24,lo8(0)
 1402 0444 90E0      		ldi r25,hi8(0)
 1403 0446 00C0      		rjmp .L86
 1404               	.L85:
 1405 0448 80E0      		ldi r24,lo8(inbuf_led)
 1406 044a 90E0      		ldi r25,hi8(inbuf_led)
 1407               	.L86:
 1408 044c 60E0      		ldi r22,lo8(.LC12)
 1409 044e 70E0      		ldi r23,hi8(.LC12)
 1410 0450 0E94 0000 		call strtok
 1411 0454 F801      		movw r30,r16
 1412 0456 9183      		std Z+1,r25
 1413 0458 8083      		st Z,r24
 1414 045a 892B      		or r24,r25
 1415 045c 01F0      		breq .L87
 1416 045e 0894      		sec
 1417 0460 E11C      		adc r14,__zero_reg__
 1418 0462 F11C      		adc r15,__zero_reg__
 1419 0464 0E5F      		subi r16,lo8(-(2))
 1420 0466 1F4F      		sbci r17,hi8(-(2))
 1421 0468 F0E1      		ldi r31,lo8(16)
 1422 046a EF16      		cp r14,r31
 1423 046c F104      		cpc r15,__zero_reg__
 1424 046e 01F4      		brne .L88
 1425               	.L87:
 1426 0470 88EE      		ldi r24,lo8(1000)
 1427 0472 93E0      		ldi r25,hi8(1000)
 1428 0474 9B87      		std Y+11,r25
 1429 0476 8A87      		std Y+10,r24
 1430 0478 81E0      		ldi r24,lo8(1)
 1431 047a 90E0      		ldi r25,hi8(1)
 1432 047c 9D87      		std Y+13,r25
 1433 047e 8C87      		std Y+12,r24
 1434 0480 00D0      		rcall .
 1435 0482 00D0      		rcall .
 1436 0484 00D0      		rcall .
GAS LISTING C:\Users\Lenovo\AppData\Local\Temp/ccNZv4CU.s 			page 27


 1437 0486 EDB7      		in r30,__SP_L__
 1438 0488 FEB7      		in r31,__SP_H__
 1439 048a 3196      		adiw r30,1
 1440 048c 8E85      		ldd r24,Y+14
 1441 048e 9F85      		ldd r25,Y+15
 1442 0490 ADB7      		in r26,__SP_L__
 1443 0492 BEB7      		in r27,__SP_H__
 1444 0494 1296      		adiw r26,1+1
 1445 0496 9C93      		st X,r25
 1446 0498 8E93      		st -X,r24
 1447 049a 1197      		sbiw r26,1
 1448 049c D382      		std Z+3,r13
 1449 049e C282      		std Z+2,r12
 1450 04a0 88E0      		ldi r24,lo8(8)
 1451 04a2 90E0      		ldi r25,hi8(8)
 1452 04a4 8C0F      		add r24,r28
 1453 04a6 9D1F      		adc r25,r29
 1454 04a8 9583      		std Z+5,r25
 1455 04aa 8483      		std Z+4,r24
 1456 04ac 0E94 0000 		call sscanf
 1457 04b0 ADB7      		in r26,__SP_L__
 1458 04b2 BEB7      		in r27,__SP_H__
 1459 04b4 1696      		adiw r26,6
 1460 04b6 0FB6      		in __tmp_reg__,__SREG__
 1461 04b8 F894      		cli
 1462 04ba BEBF      		out __SP_H__,r27
 1463 04bc 0FBE      		out __SREG__,__tmp_reg__
 1464 04be ADBF      		out __SP_L__,r26
 1465 04c0 E114      		cp r14,__zero_reg__
 1466 04c2 F104      		cpc r15,__zero_reg__
 1467 04c4 01F0      		breq .L89
 1468 04c6 00D0      		rcall .
 1469 04c8 00D0      		rcall .
 1470 04ca 00D0      		rcall .
 1471 04cc EDB7      		in r30,__SP_L__
 1472 04ce FEB7      		in r31,__SP_H__
 1473 04d0 3196      		adiw r30,1
 1474 04d2 8889      		ldd r24,Y+16
 1475 04d4 9989      		ldd r25,Y+17
 1476 04d6 ADB7      		in r26,__SP_L__
 1477 04d8 BEB7      		in r27,__SP_H__
 1478 04da 1296      		adiw r26,1+1
 1479 04dc 9C93      		st X,r25
 1480 04de 8E93      		st -X,r24
 1481 04e0 1197      		sbiw r26,1
 1482 04e2 D382      		std Z+3,r13
 1483 04e4 C282      		std Z+2,r12
 1484 04e6 9582      		std Z+5,r9
 1485 04e8 8482      		std Z+4,r8
 1486 04ea 0E94 0000 		call sscanf
 1487 04ee EDB7      		in r30,__SP_L__
 1488 04f0 FEB7      		in r31,__SP_H__
 1489 04f2 3696      		adiw r30,6
 1490 04f4 0FB6      		in __tmp_reg__,__SREG__
 1491 04f6 F894      		cli
 1492 04f8 FEBF      		out __SP_H__,r31
 1493 04fa 0FBE      		out __SREG__,__tmp_reg__
GAS LISTING C:\Users\Lenovo\AppData\Local\Temp/ccNZv4CU.s 			page 28


 1494 04fc EDBF      		out __SP_L__,r30
 1495 04fe F1E0      		ldi r31,lo8(1)
 1496 0500 EF16      		cp r14,r31
 1497 0502 F104      		cpc r15,__zero_reg__
 1498 0504 01F0      		breq .L89
 1499 0506 00D0      		rcall .
 1500 0508 00D0      		rcall .
 1501 050a 00D0      		rcall .
 1502 050c EDB7      		in r30,__SP_L__
 1503 050e FEB7      		in r31,__SP_H__
 1504 0510 3196      		adiw r30,1
 1505 0512 8A89      		ldd r24,Y+18
 1506 0514 9B89      		ldd r25,Y+19
 1507 0516 ADB7      		in r26,__SP_L__
 1508 0518 BEB7      		in r27,__SP_H__
 1509 051a 1296      		adiw r26,1+1
 1510 051c 9C93      		st X,r25
 1511 051e 8E93      		st -X,r24
 1512 0520 1197      		sbiw r26,1
 1513 0522 D382      		std Z+3,r13
 1514 0524 C282      		std Z+2,r12
 1515 0526 7582      		std Z+5,r7
 1516 0528 6482      		std Z+4,r6
 1517 052a 0E94 0000 		call sscanf
 1518 052e EDB7      		in r30,__SP_L__
 1519 0530 FEB7      		in r31,__SP_H__
 1520 0532 3696      		adiw r30,6
 1521 0534 0FB6      		in __tmp_reg__,__SREG__
 1522 0536 F894      		cli
 1523 0538 FEBF      		out __SP_H__,r31
 1524 053a 0FBE      		out __SREG__,__tmp_reg__
 1525 053c EDBF      		out __SP_L__,r30
 1526               	.L89:
 1527 053e 8DB7      		in r24,__SP_L__
 1528 0540 9EB7      		in r25,__SP_H__
 1529 0542 0A97      		sbiw r24,10
 1530 0544 0FB6      		in __tmp_reg__,__SREG__
 1531 0546 F894      		cli
 1532 0548 9EBF      		out __SP_H__,r25
 1533 054a 0FBE      		out __SREG__,__tmp_reg__
 1534 054c 8DBF      		out __SP_L__,r24
 1535 054e EDB7      		in r30,__SP_L__
 1536 0550 FEB7      		in r31,__SP_H__
 1537 0552 3196      		adiw r30,1
 1538 0554 8091 0000 		lds r24,uart
 1539 0558 9091 0000 		lds r25,(uart)+1
 1540 055c ADB7      		in r26,__SP_L__
 1541 055e BEB7      		in r27,__SP_H__
 1542 0560 1296      		adiw r26,1+1
 1543 0562 9C93      		st X,r25
 1544 0564 8E93      		st -X,r24
 1545 0566 1197      		sbiw r26,1
 1546 0568 80E0      		ldi r24,lo8(.LC19)
 1547 056a 90E0      		ldi r25,hi8(.LC19)
 1548 056c 9383      		std Z+3,r25
 1549 056e 8283      		std Z+2,r24
 1550 0570 8885      		ldd r24,Y+8
GAS LISTING C:\Users\Lenovo\AppData\Local\Temp/ccNZv4CU.s 			page 29


 1551 0572 9985      		ldd r25,Y+9
 1552 0574 9583      		std Z+5,r25
 1553 0576 8483      		std Z+4,r24
 1554 0578 8C85      		ldd r24,Y+12
 1555 057a 9D85      		ldd r25,Y+13
 1556 057c 9783      		std Z+7,r25
 1557 057e 8683      		std Z+6,r24
 1558 0580 8A85      		ldd r24,Y+10
 1559 0582 9B85      		ldd r25,Y+11
 1560 0584 9187      		std Z+9,r25
 1561 0586 8087      		std Z+8,r24
 1562 0588 0E94 0000 		call fprintf
 1563 058c 00E0      		ldi r16,lo8(0)
 1564 058e 10E0      		ldi r17,hi8(0)
 1565 0590 ADB7      		in r26,__SP_L__
 1566 0592 BEB7      		in r27,__SP_H__
 1567 0594 1A96      		adiw r26,10
 1568 0596 0FB6      		in __tmp_reg__,__SREG__
 1569 0598 F894      		cli
 1570 059a BEBF      		out __SP_H__,r27
 1571 059c 0FBE      		out __SREG__,__tmp_reg__
 1572 059e ADBF      		out __SP_L__,r26
 1573 05a0 00C0      		rjmp .L90
 1574               	.L91:
 1575 05a2 6A85      		ldd r22,Y+10
 1576 05a4 7B85      		ldd r23,Y+11
 1577 05a6 8885      		ldd r24,Y+8
 1578 05a8 9985      		ldd r25,Y+9
 1579 05aa 0E94 0000 		call led_on
 1580 05ae 0F5F      		subi r16,lo8(-(1))
 1581 05b0 1F4F      		sbci r17,hi8(-(1))
 1582               	.L90:
 1583 05b2 8C85      		ldd r24,Y+12
 1584 05b4 9D85      		ldd r25,Y+13
 1585 05b6 0817      		cp r16,r24
 1586 05b8 1907      		cpc r17,r25
 1587 05ba 04F0      		brlt .L91
 1588 05bc 00C0      		rjmp .L95
 1589               		.size	Thread4, .-Thread4
 1590               	.global	baud
 1591               		.data
 1592               		.type	baud, @object
 1593               		.size	baud, 4
 1594               	baud:
 1595 021a 80        		.byte	-128
 1596 021b 25        		.byte	37
 1597 021c 00        		.byte	0
 1598 021d 00        		.byte	0
 1599               	.global	C1
 1600               		.type	C1, @object
 1601               		.size	C1, 4
 1602               	C1:
 1603 021e 00        		.byte	0
 1604 021f 00        		.byte	0
 1605 0220 80        		.byte	-128
 1606 0221 C0        		.byte	-64
 1607               	.global	C2
GAS LISTING C:\Users\Lenovo\AppData\Local\Temp/ccNZv4CU.s 			page 30


 1608               		.type	C2, @object
 1609               		.size	C2, 4
 1610               	C2:
 1611 0222 54        		.byte	84
 1612 0223 E3        		.byte	-29
 1613 0224 25        		.byte	37
 1614 0225 3D        		.byte	61
 1615               	.global	C3
 1616               		.type	C3, @object
 1617               		.size	C3, 4
 1618               	C3:
 1619 0226 A2        		.byte	-94
 1620 0227 E7        		.byte	-25
 1621 0228 3B        		.byte	59
 1622 0229 B6        		.byte	-74
 1623               	.global	T1
 1624               		.type	T1, @object
 1625               		.size	T1, 4
 1626               	T1:
 1627 022a 0A        		.byte	10
 1628 022b D7        		.byte	-41
 1629 022c 23        		.byte	35
 1630 022d 3C        		.byte	60
 1631               	.global	T2
 1632               		.type	T2, @object
 1633               		.size	T2, 4
 1634               	T2:
 1635 022e AC        		.byte	-84
 1636 022f C5        		.byte	-59
 1637 0230 A7        		.byte	-89
 1638 0231 38        		.byte	56
 1639               		.lcomm inbuf,50
 1640               		.lcomm inbuf_motor,50
 1641               		.lcomm inbuf_led,50
 1642               		.comm uart,2,1
 1643               		.comm TEMP_cksum,1,1
 1644               		.comm HUMI_cksum,1,1
 1645               		.comm TEMP_val,2,1
 1646               		.comm HUMI_val,2,1
 1647               	.global __do_copy_data
 1648               	.global __do_clear_bss
GAS LISTING C:\Users\Lenovo\AppData\Local\Temp/ccNZv4CU.s 			page 31


DEFINED SYMBOLS
                            *ABS*:00000000 uas1.c
C:\Users\Lenovo\AppData\Local\Temp/ccNZv4CU.s:2      *ABS*:0000003f __SREG__
C:\Users\Lenovo\AppData\Local\Temp/ccNZv4CU.s:3      *ABS*:0000003e __SP_H__
C:\Users\Lenovo\AppData\Local\Temp/ccNZv4CU.s:4      *ABS*:0000003d __SP_L__
C:\Users\Lenovo\AppData\Local\Temp/ccNZv4CU.s:5      *ABS*:00000034 __CCP__
C:\Users\Lenovo\AppData\Local\Temp/ccNZv4CU.s:6      *ABS*:00000000 __tmp_reg__
C:\Users\Lenovo\AppData\Local\Temp/ccNZv4CU.s:7      *ABS*:00000001 __zero_reg__
C:\Users\Lenovo\AppData\Local\Temp/ccNZv4CU.s:11     .text.calc_sth11:00000000 calc_sth11
                            *COM*:00000002 HUMI_val
                            *COM*:00000002 TEMP_val
C:\Users\Lenovo\AppData\Local\Temp/ccNZv4CU.s:196    .text.NutAppMain:00000000 NutAppMain
C:\Users\Lenovo\AppData\Local\Temp/ccNZv4CU.s:305    .text.Thread1:00000000 Thread1
C:\Users\Lenovo\AppData\Local\Temp/ccNZv4CU.s:284    .text.Thread2:00000000 Thread2
C:\Users\Lenovo\AppData\Local\Temp/ccNZv4CU.s:261    .text.Thread3:00000000 Thread3
C:\Users\Lenovo\AppData\Local\Temp/ccNZv4CU.s:900    .text.Thread4:00000000 Thread4
C:\Users\Lenovo\AppData\Local\Temp/ccNZv4CU.s:326    .text.rotate_Left:00000000 rotate_Left
C:\Users\Lenovo\AppData\Local\Temp/ccNZv4CU.s:382    .text.rotate_Right:00000000 rotate_Right
C:\Users\Lenovo\AppData\Local\Temp/ccNZv4CU.s:438    .text.led_on:00000000 led_on
C:\Users\Lenovo\AppData\Local\Temp/ccNZv4CU.s:489    .text.InitUART0:00000000 InitUART0
                            *COM*:00000002 uart
C:\Users\Lenovo\AppData\Local\Temp/ccNZv4CU.s:1594   .data:0000021a baud
C:\Users\Lenovo\AppData\Local\Temp/ccNZv4CU.s:517    .text.SHT11_Start:00000000 SHT11_Start
C:\Users\Lenovo\AppData\Local\Temp/ccNZv4CU.s:564    .text.SHT11_Reset:00000000 SHT11_Reset
C:\Users\Lenovo\AppData\Local\Temp/ccNZv4CU.s:600    .text.SHT11_ByteRD:00000000 SHT11_ByteRD
C:\Users\Lenovo\AppData\Local\Temp/ccNZv4CU.s:667    .text.SHT11_ByteWR:00000000 SHT11_ByteWR
C:\Users\Lenovo\AppData\Local\Temp/ccNZv4CU.s:735    .text.SHT11_TEMP:00000000 SHT11_TEMP
                            *COM*:00000001 TEMP_cksum
C:\Users\Lenovo\AppData\Local\Temp/ccNZv4CU.s:803    .text.SHT11_HUMI:00000000 SHT11_HUMI
                            *COM*:00000001 HUMI_cksum
                             .bss:00000000 inbuf
C:\Users\Lenovo\AppData\Local\Temp/ccNZv4CU.s:1639   .bss:00000032 inbuf_motor
C:\Users\Lenovo\AppData\Local\Temp/ccNZv4CU.s:1640   .bss:00000064 inbuf_led
C:\Users\Lenovo\AppData\Local\Temp/ccNZv4CU.s:1602   .data:0000021e C1
C:\Users\Lenovo\AppData\Local\Temp/ccNZv4CU.s:1610   .data:00000222 C2
C:\Users\Lenovo\AppData\Local\Temp/ccNZv4CU.s:1618   .data:00000226 C3
C:\Users\Lenovo\AppData\Local\Temp/ccNZv4CU.s:1626   .data:0000022a T1
C:\Users\Lenovo\AppData\Local\Temp/ccNZv4CU.s:1634   .data:0000022e T2

UNDEFINED SYMBOLS
__floatunsisf
__mulsf3
__subsf3
__addsf3
__gtsf2
__ltsf2
__fixunssfsi
NutThreadCreate
NutSleep
devUsartAvr0
NutRegisterDevice
fopen
_fileno
_ioctl
NutMicroDelay
fputs
fflush
GAS LISTING C:\Users\Lenovo\AppData\Local\Temp/ccNZv4CU.s 			page 32


fgets
strchr
sscanf
strtok
fprintf
__do_copy_data
__do_clear_bss
